target datalayout = "e-m:e-p270:32:32-p271:32:32-p272:64:64-i64:64-i128:128-f80:128-n8:16:32:64-S128"
target triple = "x86_64-pc-linux-gnu"

%struct._per_sequence_t = type { ptr, i32, i32, ptr }
%struct._packet_info = type { ptr, ptr, i32, i32, %struct.nstime_t, %struct.nstime_t, %struct.nstime_t, i8, ptr, ptr, ptr, ptr, %struct._address, %struct._address, %struct._address, %struct._address, %struct._address, %struct._address, i32, ptr, i8, [3 x i8], %struct.anon, i32, i32, i32, i32, ptr, i8, ptr, ptr, i16, i16, i32, i32, i16, i32, i32, ptr, ptr, ptr, i8, i8, i16, i16, i16, i32, i16, i16, ptr, ptr, ptr, ptr, ptr, i32, i32 }
%struct.nstime_t = type { i64, i32 }
%struct._address = type { i32, i32, ptr, ptr }
%struct.anon = type { i8, [3 x i8] }
%struct._asn1_ctx_t = type { i32, i32, i8, ptr, ptr, ptr, ptr, ptr, %struct.anon.0, %struct.anon.3, %struct.anon.4, ptr }
%struct.anon.0 = type { i32, i8, i8, i8, ptr, ptr, i32, i32, ptr, ptr, ptr, %union.anon }
%union.anon = type { %struct.anon.1 }
%struct.anon.1 = type { ptr }
%struct.anon.3 = type { ptr, ptr, ptr }
%struct.anon.4 = type { i32, i8, ptr, i32, i32, ptr, ptr, ptr, %union.anon.5 }
%union.anon.5 = type { %struct.anon.6 }
%struct.anon.6 = type { ptr }
%struct.nbap_private_data_t = type { i32, i16, i32, i32, i32, i32, i32, i32, i32, i32, i32, i32, i32, i32, i32, i32, i32, i32, i8, i32, i32, i32, i32, i32, i32, i32, i32, i8, i8, [256 x %struct.nbap_dch_channel_info_t], [8 x %struct.nbap_edch_channel_info_t], [8 x i32], [8 x %struct.nbap_hsdsch_channel_info_t], [8 x %struct.nbap_common_channel_info_t], ptr }
%struct.nbap_dch_channel_info_t = type { i32, i32, i32, [64 x i32], [64 x i32], i32, [64 x i32], [64 x i32] }
%struct.nbap_edch_channel_info_t = type { %struct._address, i16, i32, [16 x i8], [16 x i32], i8, [16 x i8] }
%struct.nbap_hsdsch_channel_info_t = type { %struct._address, i16, i32, i32, i8 }
%struct.nbap_common_channel_info_t = type { %struct._address, i16, i32 }

@hf_nbap_HSDSCH_MACdFlows_to_Delete_PDU = internal global i32 0, align 4
@ett_nbap_HSDSCH_MACdFlows_to_Delete = internal global i32 0, align 4
@proto_nbap = internal global i32 0, align 4
@HSDSCH_MACdFlows_to_Delete_sequence_of = internal constant [1 x %struct._per_sequence_t] [%struct._per_sequence_t { ptr @hf_nbap_HSDSCH_MACdFlows_to_Delete_item, i32 0, i32 0, ptr @dissect_nbap_HSDSCH_MACdFlows_to_Delete_Item }], align 16

; Function Attrs: null_pointer_is_valid sspstrong uwtable
define internal ptr @nbap_get_private_data(ptr noundef %0) #0 {
  %2 = alloca ptr, align 8
  %3 = alloca i8, align 1
  %4 = alloca ptr, align 8
  store ptr %0, ptr %2, align 8
  call void @llvm.lifetime.start.p0(i64 1, ptr %3) #13
  call void @llvm.lifetime.start.p0(i64 8, ptr %4) #13
  %5 = load ptr, ptr %2, align 8
  %6 = getelementptr inbounds nuw %struct._packet_info, ptr %5, i32 0, i32 51
  %7 = load ptr, ptr %6, align 8
  %8 = load ptr, ptr %2, align 8
  %9 = load i32, ptr @proto_nbap, align 4
  %10 = call ptr @p_get_proto_data(ptr noundef %7, ptr noundef %8, i32 noundef %9, i32 noundef 0)
  store ptr %10, ptr %4, align 8
  %11 = load ptr, ptr %4, align 8
  %12 = icmp eq ptr %11, null
  br i1 %12, label %13, label %49

13:                                               ; preds = %1
  %14 = load ptr, ptr %2, align 8
  %15 = getelementptr inbounds nuw %struct._packet_info, ptr %14, i32 0, i32 51
  %16 = load ptr, ptr %15, align 8
  %17 = call noalias ptr @wmem_alloc0(ptr noundef %16, i64 noundef 268056) #14
  store ptr %17, ptr %4, align 8
  %18 = load ptr, ptr %2, align 8
  %19 = getelementptr inbounds nuw %struct._packet_info, ptr %18, i32 0, i32 51
  %20 = load ptr, ptr %19, align 8
  %21 = load ptr, ptr %2, align 8
  %22 = load i32, ptr @proto_nbap, align 4
  %23 = load ptr, ptr %4, align 8
  call void @p_add_proto_data(ptr noundef %20, ptr noundef %21, i32 noundef %22, i32 noundef 0, ptr noundef %23)
  %24 = load ptr, ptr %4, align 8
  %25 = getelementptr inbounds nuw %struct.nbap_private_data_t, ptr %24, i32 0, i32 17
  store i32 3, ptr %25, align 4
  %26 = load ptr, ptr %4, align 8
  %27 = getelementptr inbounds nuw %struct.nbap_private_data_t, ptr %26, i32 0, i32 27
  store i8 0, ptr %27, align 4
  %28 = load ptr, ptr %4, align 8
  %29 = getelementptr inbounds nuw %struct.nbap_private_data_t, ptr %28, i32 0, i32 3
  store i32 65535, ptr %29, align 4
  %30 = load ptr, ptr %4, align 8
  %31 = getelementptr inbounds nuw %struct.nbap_private_data_t, ptr %30, i32 0, i32 10
  store i32 65535, ptr %31, align 8
  %32 = load ptr, ptr %4, align 8
  %33 = getelementptr inbounds nuw %struct.nbap_private_data_t, ptr %32, i32 0, i32 28
  store i8 2, ptr %33, align 1
  store i8 0, ptr %3, align 1
  br label %34

34:                                               ; preds = %45, %13
  %35 = load i8, ptr %3, align 1
  %36 = zext i8 %35 to i32
  %37 = icmp slt i32 %36, 8
  br i1 %37, label %38, label %48

38:                                               ; preds = %34
  %39 = load ptr, ptr %4, align 8
  %40 = getelementptr inbounds nuw %struct.nbap_private_data_t, ptr %39, i32 0, i32 32
  %41 = load i8, ptr %3, align 1
  %42 = zext i8 %41 to i64
  %43 = getelementptr [8 x %struct.nbap_hsdsch_channel_info_t], ptr %40, i64 0, i64 %42
  %44 = getelementptr inbounds nuw %struct.nbap_hsdsch_channel_info_t, ptr %43, i32 0, i32 4
  store i8 1, ptr %44, align 4
  br label %45

45:                                               ; preds = %38
  %46 = load i8, ptr %3, align 1
  %47 = add i8 %46, 1
  store i8 %47, ptr %3, align 1
  br label %34, !llvm.loop !9

48:                                               ; preds = %34
  br label %49

49:                                               ; preds = %48, %1
  %50 = load ptr, ptr %4, align 8
  call void @llvm.lifetime.end.p0(i64 8, ptr %4) #13
  call void @llvm.lifetime.end.p0(i64 1, ptr %3) #13
  ret ptr %50
}

; Function Attrs: null_pointer_is_valid sspstrong uwtable
define internal i32 @dissect_nbap_HSDSCH_MACdFlows_to_Delete(ptr noundef %0, i32 noundef %1, ptr noundef %2, ptr noundef %3, i32 noundef %4) #0 {
  %6 = alloca ptr, align 8
  %7 = alloca i32, align 4
  %8 = alloca ptr, align 8
  %9 = alloca ptr, align 8
  %10 = alloca i32, align 4
  store ptr %0, ptr %6, align 8
  store i32 %1, ptr %7, align 4
  store ptr %2, ptr %8, align 8
  store ptr %3, ptr %9, align 8
  store i32 %4, ptr %10, align 4
  %11 = load ptr, ptr %8, align 8
  %12 = getelementptr inbounds nuw %struct._asn1_ctx_t, ptr %11, i32 0, i32 3
  %13 = load ptr, ptr %12, align 8
  %14 = call ptr @nbap_get_private_data(ptr noundef %13)
  %15 = getelementptr inbounds nuw %struct.nbap_private_data_t, ptr %14, i32 0, i32 4
  store i32 0, ptr %15, align 8
  %16 = load ptr, ptr %6, align 8
  %17 = load i32, ptr %7, align 4
  %18 = load ptr, ptr %8, align 8
  %19 = load ptr, ptr %9, align 8
  %20 = load i32, ptr %10, align 4
  %21 = load i32, ptr @ett_nbap_HSDSCH_MACdFlows_to_Delete, align 4
  %22 = call i32 @dissect_per_constrained_sequence_of(ptr noundef %16, i32 noundef %17, ptr noundef %18, ptr noundef %19, i32 noundef %20, i32 noundef %21, ptr noundef @HSDSCH_MACdFlows_to_Delete_sequence_of, i32 noundef 1, i32 noundef 8, i1 noundef zeroext false)
  store i32 %22, ptr %7, align 4
  %23 = load i32, ptr %7, align 4
  ret i32 %23
}

; Function Attrs: null_pointer_is_valid sspstrong uwtable
define internal i32 @dissect_HSDSCH_MACdFlows_to_Delete_PDU(ptr noundef %0, ptr noundef %1, ptr noundef %2, ptr noundef %3) #0 {
  %5 = alloca ptr, align 8
  %6 = alloca ptr, align 8
  %7 = alloca ptr, align 8
  %8 = alloca ptr, align 8
  %9 = alloca i32, align 4
  %10 = alloca %struct._asn1_ctx_t, align 8
  store ptr %0, ptr %5, align 8
  store ptr %1, ptr %6, align 8
  store ptr %2, ptr %7, align 8
  store ptr %3, ptr %8, align 8
  call void @llvm.lifetime.start.p0(i64 4, ptr %9) #13
  store i32 0, ptr %9, align 4
  call void @llvm.lifetime.start.p0(i64 208, ptr %10) #13
  %11 = load ptr, ptr %6, align 8
  call void @asn1_ctx_init(ptr noundef %10, i32 noundef 1, i1 noundef zeroext true, ptr noundef %11)
  %12 = load ptr, ptr %5, align 8
  %13 = load i32, ptr %9, align 4
  %14 = load ptr, ptr %7, align 8
  %15 = load i32, ptr @hf_nbap_HSDSCH_MACdFlows_to_Delete_PDU, align 4
  %16 = call i32 @dissect_nbap_HSDSCH_MACdFlows_to_Delete(ptr noundef %12, i32 noundef %13, ptr noundef %10, ptr noundef %14, i32 noundef %15)
  store i32 %16, ptr %9, align 4
  %17 = load i32, ptr %9, align 4
  %18 = add i32 %17, 7
  store i32 %18, ptr %9, align 4
  %19 = load i32, ptr %9, align 4
  %20 = ashr i32 %19, 3
  store i32 %20, ptr %9, align 4
  %21 = load i32, ptr %9, align 4
  call void @llvm.lifetime.end.p0(i64 208, ptr %10) #13
  call void @llvm.lifetime.end.p0(i64 4, ptr %9) #13
  ret i32 %21
}