; Function Attrs: null_pointer_is_valid sspstrong uwtable
define internal range(i32 -268435456, 268435456) i32 @dissect_HSDSCH_MACdFlows_to_Delete_PDU(ptr noundef %0, ptr noundef %1, ptr noundef %2, ptr readnone captures(none) %3) #0 {
  %5 = alloca %struct._asn1_ctx_t, align 8
  call void @llvm.lifetime.start.p0(i64 208, ptr nonnull %5) #9
  call void @asn1_ctx_init(ptr noundef nonnull %5, i32 noundef 1, i1 noundef zeroext true, ptr noundef %1)
  %6 = load i32, ptr @hf_nbap_HSDSCH_MACdFlows_to_Delete_PDU, align 4
  %7 = getelementptr inbounds nuw i8, ptr %5, i64 16
  %8 = load ptr, ptr %7, align 8
  %9 = getelementptr inbounds nuw i8, ptr %8, i64 408
  %10 = load ptr, ptr %9, align 8
  %11 = load i32, ptr @proto_nbap, align 4
  %12 = call ptr @p_get_proto_data(ptr noundef %10, ptr noundef %8, i32 noundef %11, i32 noundef 0)
  %13 = icmp eq ptr %12, null
  br i1 %13, label %14, label %dissect_nbap_HSDSCH_MACdFlows_to_Delete.exit

14:                                               ; preds = %4
  %15 = load ptr, ptr %9, align 8
  %16 = call noalias dereferenceable_or_null(268056) ptr @wmem_alloc0(ptr noundef %15, i64 noundef 268056) #10
  %17 = load ptr, ptr %9, align 8
  %18 = load i32, ptr @proto_nbap, align 4
  call void @p_add_proto_data(ptr noundef %17, ptr noundef %8, i32 noundef %18, i32 noundef 0, ptr noundef %16)
  %19 = getelementptr inbounds nuw i8, ptr %16, i64 68
  store i32 3, ptr %19, align 4
  %20 = getelementptr inbounds nuw i8, ptr %16, i64 108
  store i8 0, ptr %20, align 4
  %21 = getelementptr inbounds nuw i8, ptr %16, i64 12
  store i32 65535, ptr %21, align 4
  %22 = getelementptr inbounds nuw i8, ptr %16, i64 40
  store i32 65535, ptr %22, align 8
  %23 = getelementptr inbounds nuw i8, ptr %16, i64 109
  store i8 2, ptr %23, align 1
  %24 = getelementptr i8, ptr %16, i64 267508
  br label %25

25:                                               ; preds = %25, %14
  %indvars.iv.i.i = phi i64 [ 0, %14 ], [ %indvars.iv.next.i.i, %25 ]
  %.idx.i.i = mul nuw nsw i64 %indvars.iv.i.i, 40
  %26 = getelementptr i8, ptr %24, i64 %.idx.i.i
  store i8 1, ptr %26, align 4
  %indvars.iv.next.i.i = add nuw nsw i64 %indvars.iv.i.i, 1
  %exitcond.not.i.i = icmp eq i64 %indvars.iv.next.i.i, 8
  br i1 %exitcond.not.i.i, label %dissect_nbap_HSDSCH_MACdFlows_to_Delete.exit, label %25, !llvm.loop !9

dissect_nbap_HSDSCH_MACdFlows_to_Delete.exit:     ; preds = %25, %4
  %.0.i.i = phi ptr [ %12, %4 ], [ %16, %25 ]
  %27 = getelementptr inbounds nuw i8, ptr %.0.i.i, i64 16
  store i32 0, ptr %27, align 8
  %28 = load i32, ptr @ett_nbap_HSDSCH_MACdFlows_to_Delete, align 4
  %29 = call i32 @dissect_per_constrained_sequence_of(ptr noundef %0, i32 noundef 0, ptr noundef nonnull %5, ptr noundef %2, i32 noundef %6, i32 noundef %28, ptr noundef nonnull @HSDSCH_MACdFlows_to_Delete_sequence_of, i32 noundef 1, i32 noundef 8, i1 noundef zeroext false)
  %30 = add i32 %29, 7
  %31 = ashr i32 %30, 3
  call void @llvm.lifetime.end.p0(i64 208, ptr nonnull %5) #9
  ret i32 %31
}